   1               		.file	"tftp.c"
   2               	__SREG__ = 0x3f
   3               	__SP_H__ = 0x3e
   4               	__SP_L__ = 0x3d
   5               	__CCP__  = 0x34
   6               	__tmp_reg__ = 0
   7               	__zero_reg__ = 1
  15               	.Ltext0:
  16               	.global	tftpd_send_error_P
  18               	tftpd_send_error_P:
  19               	.LFB9:
  20               	.LM1:
  21               	.LVL0:
  22 0000 FF92      		push r15
  23 0002 0F93      		push r16
  24 0004 1F93      		push r17
  25               	/* prologue: function */
  26               	/* frame size = 0 */
  27 0006 F82E      		mov r15,r24
  28 0008 8B01      		movw r16,r22
  29               	.LM2:
  30 000a 85E0      		ldi r24,lo8(5)
  31 000c 90E0      		ldi r25,hi8(5)
  32               	.LVL1:
  33 000e 0E94 0000 		call hton16
  34               	.LVL2:
  35 0012 9093 0000 		sts (ethernet_tx_buffer+42)+1,r25
  36 0016 8093 0000 		sts ethernet_tx_buffer+42,r24
  37               	.LM3:
  38 001a 8F2D      		mov r24,r15
  39 001c 90E0      		ldi r25,lo8(0)
  40 001e 0E94 0000 		call hton16
  41 0022 9093 0000 		sts (ethernet_tx_buffer+44)+1,r25
  42 0026 8093 0000 		sts ethernet_tx_buffer+44,r24
  43               	.LM4:
  44 002a 80E0      		ldi r24,lo8(ethernet_tx_buffer+46)
  45 002c 90E0      		ldi r25,hi8(ethernet_tx_buffer+46)
  46 002e B801      		movw r22,r16
  47 0030 0E94 0000 		call strcpy_P
  48               	.LM5:
  49 0034 C801      		movw r24,r16
  50 0036 0E94 0000 		call strlen_P
  51               	.LM6:
  52 003a BC01      		movw r22,r24
  53 003c 6B5F      		subi r22,lo8(-(5))
  54 003e 7F4F      		sbci r23,hi8(-(5))
  55 0040 8091 0000 		lds r24,tftpd
  56 0044 0E94 0000 		call udp_send
  57               	/* epilogue start */
  58               	.LM7:
  59 0048 1F91      		pop r17
  60 004a 0F91      		pop r16
  61               	.LVL3:
  62 004c FF90      		pop r15
  63               	.LVL4:
  64 004e 0895      		ret
  65               	.LFE9:
  67               	.global	tftpd_send_ack
  69               	tftpd_send_ack:
  70               	.LFB7:
  71               	.LM8:
  72               	.LVL5:
  73 0050 0F93      		push r16
  74 0052 1F93      		push r17
  75               	/* prologue: function */
  76               	/* frame size = 0 */
  77 0054 8C01      		movw r16,r24
  78               	.LM9:
  79 0056 84E0      		ldi r24,lo8(4)
  80 0058 90E0      		ldi r25,hi8(4)
  81               	.LVL6:
  82 005a 0E94 0000 		call hton16
  83 005e 9093 0000 		sts (ethernet_tx_buffer+42)+1,r25
  84 0062 8093 0000 		sts ethernet_tx_buffer+42,r24
  85               	.LM10:
  86 0066 C801      		movw r24,r16
  87 0068 0E94 0000 		call hton16
  88 006c 9093 0000 		sts (ethernet_tx_buffer+44)+1,r25
  89 0070 8093 0000 		sts ethernet_tx_buffer+44,r24
  90               	.LM11:
  91 0074 8091 0000 		lds r24,tftpd
  92 0078 64E0      		ldi r22,lo8(4)
  93 007a 70E0      		ldi r23,hi8(4)
  94 007c 0E94 0000 		call udp_send
  95               	/* epilogue start */
  96               	.LM12:
  97 0080 1F91      		pop r17
  98 0082 0F91      		pop r16
  99               	.LVL7:
 100 0084 0895      		ret
 101               	.LFE7:
 103               	.global	tftpd_handle_data
 105               	tftpd_handle_data:
 106               	.LFB10:
 107               	.LM13:
 108 0086 8F92      		push r8
 109 0088 9F92      		push r9
 110 008a AF92      		push r10
 111 008c BF92      		push r11
 112 008e CF92      		push r12
 113 0090 DF92      		push r13
 114 0092 EF92      		push r14
 115 0094 FF92      		push r15
 116 0096 0F93      		push r16
 117 0098 1F93      		push r17
 118 009a CF93      		push r28
 119 009c DF93      		push r29
 120               	/* prologue: function */
 121               	/* frame size = 0 */
 122 009e FC01      		movw r30,r24
 123               	.LM14:
 124 00a0 8091 0000 		lds r24,tftpd+1
 125 00a4 8130      		cpi r24,lo8(1)
 126 00a6 01F0      		breq .+2
 127 00a8 00C0      		rjmp .L6
 128 00aa 82E0      		ldi r24,hi8(515)
 129 00ac 6330      		cpi r22,lo8(515)
 130 00ae 7807      		cpc r23,r24
 131 00b0 00F0      		brlo .+2
 132 00b2 00C0      		rjmp .L6
 133               	.LM15:
 134 00b4 8181      		ldd r24,Z+1
 135 00b6 E82E      		mov r14,r24
 136 00b8 FF24      		clr r15
 137 00ba 9081      		ld r25,Z
 138 00bc 80E0      		ldi r24,lo8(0)
 139 00be E82A      		or r14,r24
 140 00c0 F92A      		or r15,r25
 141               	.LM16:
 142 00c2 8091 0000 		lds r24,tftpd+3
 143 00c6 9091 0000 		lds r25,(tftpd+3)+1
 144 00ca 8E15      		cp r24,r14
 145 00cc 9F05      		cpc r25,r15
 146 00ce 00F0      		brlo .+2
 147 00d0 00C0      		rjmp .L6
 148               	.LM17:
 149 00d2 2EEF      		ldi r18,lo8(-2)
 150 00d4 C22E      		mov r12,r18
 151 00d6 2FEF      		ldi r18,hi8(-2)
 152 00d8 D22E      		mov r13,r18
 153 00da C60E      		add r12,r22
 154 00dc D71E      		adc r13,r23
 155 00de EF01      		movw r28,r30
 156 00e0 00E0      		ldi r16,lo8(0)
 157 00e2 10E0      		ldi r17,hi8(0)
 158               	.LM18:
 159 00e4 90E0      		ldi r25,lo8(__c.1903)
 160 00e6 892E      		mov r8,r25
 161 00e8 90E0      		ldi r25,hi8(__c.1903)
 162 00ea 992E      		mov r9,r25
 163               	.LM19:
 164 00ec 80E0      		ldi r24,lo8(__c.1907)
 165 00ee A82E      		mov r10,r24
 166 00f0 80E0      		ldi r24,hi8(__c.1907)
 167 00f2 B82E      		mov r11,r24
 168 00f4 00C0      		rjmp .L7
 169               	.L11:
 170               	.LM20:
 171 00f6 8091 0000 		lds r24,tftpd+2
 172 00fa 8130      		cpi r24,lo8(1)
 173 00fc 01F0      		breq .L8
 174 00fe 8230      		cpi r24,lo8(2)
 175 0100 01F0      		breq .+2
 176 0102 00C0      		rjmp .L6
 177 0104 00C0      		rjmp .L15
 178               	.L8:
 179               	.LM21:
 180 0106 00D0      		rcall .
 181 0108 00D0      		rcall .
 182 010a 00D0      		rcall .
 183 010c EDB7      		in r30,__SP_L__
 184 010e FEB7      		in r31,__SP_H__
 185 0110 3196      		adiw r30,1
 186 0112 8091 0000 		lds r24,df
 187 0116 9091 0000 		lds r25,(df)+1
 188 011a ADB7      		in r26,__SP_L__
 189 011c BEB7      		in r27,__SP_H__
 190 011e 1296      		adiw r26,1+1
 191 0120 9C93      		st X,r25
 192 0122 8E93      		st -X,r24
 193 0124 1197      		sbiw r26,1
 194 0126 9382      		std Z+3,r9
 195 0128 8282      		std Z+2,r8
 196 012a 00C0      		rjmp .L14
 197               	.L15:
 198               	.LM22:
 199 012c 00D0      		rcall .
 200 012e 00D0      		rcall .
 201 0130 00D0      		rcall .
 202 0132 EDB7      		in r30,__SP_L__
 203 0134 FEB7      		in r31,__SP_H__
 204 0136 3196      		adiw r30,1
 205 0138 8091 0000 		lds r24,df
 206 013c 9091 0000 		lds r25,(df)+1
 207 0140 ADB7      		in r26,__SP_L__
 208 0142 BEB7      		in r27,__SP_H__
 209 0144 1296      		adiw r26,1+1
 210 0146 9C93      		st X,r25
 211 0148 8E93      		st -X,r24
 212 014a 1197      		sbiw r26,1
 213 014c B382      		std Z+3,r11
 214 014e A282      		std Z+2,r10
 215               	.L14:
 216 0150 8A81      		ldd r24,Y+2
 217 0152 8483      		std Z+4,r24
 218 0154 1582      		std Z+5,__zero_reg__
 219 0156 0E94 0000 		call fprintf_P
 220 015a EDB7      		in r30,__SP_L__
 221 015c FEB7      		in r31,__SP_H__
 222 015e 3696      		adiw r30,6
 223 0160 0FB6      		in __tmp_reg__,__SREG__
 224 0162 F894      		cli
 225 0164 FEBF      		out __SP_H__,r31
 226 0166 0FBE      		out __SREG__,__tmp_reg__
 227 0168 EDBF      		out __SP_L__,r30
 228               	.LM23:
 229 016a 0F5F      		subi r16,lo8(-(1))
 230 016c 1F4F      		sbci r17,hi8(-(1))
 231 016e 2196      		adiw r28,1
 232               	.L7:
 233 0170 0C15      		cp r16,r12
 234 0172 1D05      		cpc r17,r13
 235 0174 00F4      		brsh .+2
 236 0176 00C0      		rjmp .L11
 237               	.LM24:
 238 0178 00D0      		rcall .
 239 017a 00D0      		rcall .
 240 017c 8091 0000 		lds r24,df
 241 0180 9091 0000 		lds r25,(df)+1
 242 0184 ADB7      		in r26,__SP_L__
 243 0186 BEB7      		in r27,__SP_H__
 244 0188 1296      		adiw r26,1+1
 245 018a 9C93      		st X,r25
 246 018c 8E93      		st -X,r24
 247 018e 1197      		sbiw r26,1
 248 0190 80E0      		ldi r24,lo8(__c.1913)
 249 0192 90E0      		ldi r25,hi8(__c.1913)
 250 0194 1496      		adiw r26,3+1
 251 0196 9C93      		st X,r25
 252 0198 8E93      		st -X,r24
 253 019a 1397      		sbiw r26,3
 254 019c 0E94 0000 		call fprintf_P
 255               	.LM25:
 256 01a0 0F90      		pop __tmp_reg__
 257 01a2 0F90      		pop __tmp_reg__
 258 01a4 0F90      		pop __tmp_reg__
 259 01a6 0F90      		pop __tmp_reg__
 260 01a8 C701      		movw r24,r14
 261 01aa 0E94 0000 		call tftpd_send_ack
 262 01ae 8823      		tst r24
 263 01b0 01F0      		breq .L6
 264               	.LM26:
 265 01b2 B0E0      		ldi r27,lo8(512)
 266 01b4 CB16      		cp r12,r27
 267 01b6 B2E0      		ldi r27,hi8(512)
 268 01b8 DB06      		cpc r13,r27
 269 01ba 00F0      		brlo .L6
 270               	.LM27:
 271 01bc F092 0000 		sts (tftpd+3)+1,r15
 272 01c0 E092 0000 		sts tftpd+3,r14
 273 01c4 81E0      		ldi r24,lo8(1)
 274 01c6 00C0      		rjmp .L12
 275               	.L6:
 276               	.LM28:
 277 01c8 80E0      		ldi r24,lo8(0)
 278               	.L12:
 279               	/* epilogue start */
 280               	.LM29:
 281 01ca DF91      		pop r29
 282 01cc CF91      		pop r28
 283 01ce 1F91      		pop r17
 284 01d0 0F91      		pop r16
 285 01d2 FF90      		pop r15
 286 01d4 EF90      		pop r14
 287 01d6 DF90      		pop r13
 288 01d8 CF90      		pop r12
 289 01da BF90      		pop r11
 290 01dc AF90      		pop r10
 291 01de 9F90      		pop r9
 292 01e0 8F90      		pop r8
 293 01e2 0895      		ret
 294               	.LFE10:
 296               	.global	tftpd_get_mode
 298               	tftpd_get_mode:
 299               	.LFB8:
 300               	.LM30:
 301               	.LVL8:
 302 01e4 CF93      		push r28
 303 01e6 DF93      		push r29
 304               	/* prologue: function */
 305               	/* frame size = 0 */
 306 01e8 EC01      		movw r28,r24
 307               	.LM31:
 308 01ea 60E0      		ldi r22,lo8(__c.1872)
 309 01ec 70E0      		ldi r23,hi8(__c.1872)
 310 01ee 0E94 0000 		call strcmp_P
 311               	.LVL9:
 312 01f2 892B      		or r24,r25
 313 01f4 01F4      		brne .L17
 314 01f6 81E0      		ldi r24,lo8(1)
 315 01f8 00C0      		rjmp .L18
 316               	.L17:
 317               	.LM32:
 318 01fa CE01      		movw r24,r28
 319 01fc 60E0      		ldi r22,lo8(__c.1874)
 320 01fe 70E0      		ldi r23,hi8(__c.1874)
 321 0200 0E94 0000 		call strcmp_P
 322 0204 892B      		or r24,r25
 323 0206 01F4      		brne .L19
 324 0208 82E0      		ldi r24,lo8(2)
 325 020a 00C0      		rjmp .L18
 326               	.L19:
 327               	.LM33:
 328 020c CE01      		movw r24,r28
 329 020e 60E0      		ldi r22,lo8(__c.1876)
 330 0210 70E0      		ldi r23,hi8(__c.1876)
 331 0212 0E94 0000 		call strcmp_P
 332 0216 892B      		or r24,r25
 333 0218 01F0      		breq .L20
 334 021a 80E0      		ldi r24,lo8(0)
 335 021c 00C0      		rjmp .L18
 336               	.L20:
 337 021e 83E0      		ldi r24,lo8(3)
 338               	.L18:
 339               	/* epilogue start */
 340               	.LM34:
 341 0220 DF91      		pop r29
 342 0222 CF91      		pop r28
 343               	.LVL10:
 344 0224 0895      		ret
 345               	.LFE8:
 347               	.global	tftpd_handle_wrq
 349               	tftpd_handle_wrq:
 350               	.LFB6:
 351               	.LM35:
 352               	.LVL11:
 353 0226 EF92      		push r14
 354 0228 FF92      		push r15
 355 022a 0F93      		push r16
 356 022c 1F93      		push r17
 357 022e CF93      		push r28
 358 0230 DF93      		push r29
 359               	/* prologue: function */
 360               	/* frame size = 0 */
 361 0232 9C01      		movw r18,r24
 362               	.LM36:
 363 0234 8091 0000 		lds r24,tftpd+1
 364               	.LVL12:
 365 0238 8823      		tst r24
 366 023a 01F4      		brne .L29
 367               	.L23:
 368               	.LM37:
 369 023c F901      		movw r30,r18
 370 023e 0190      		ld __tmp_reg__,Z+
 371 0240 0020      		tst __tmp_reg__
 372 0242 01F4      		brne .-6
 373 0244 3197      		sbiw r30,1
 374               	.LM38:
 375 0246 E21B      		sub r30,r18
 376 0248 CE2F      		mov r28,r30
 377               	.LVL13:
 378 024a D0E0      		ldi r29,lo8(0)
 379               	.LVL14:
 380 024c 2196      		adiw r28,1
 381               	.LVL15:
 382 024e C20F      		add r28,r18
 383 0250 D31F      		adc r29,r19
 384               	.LM39:
 385 0252 FE01      		movw r30,r28
 386 0254 0190      		ld __tmp_reg__,Z+
 387 0256 0020      		tst __tmp_reg__
 388 0258 01F4      		brne .-6
 389 025a 3197      		sbiw r30,1
 390 025c EE2E      		mov r14,r30
 391               	.LVL16:
 392 025e EC1A      		sub r14,r28
 393 0260 8E01      		movw r16,r28
 394 0262 FF24      		clr r15
 395               	.LVL17:
 396 0264 00C0      		rjmp .L25
 397               	.L26:
 398               	.LM40:
 399 0266 F801      		movw r30,r16
 400 0268 8081      		ld r24,Z
 401 026a 90E0      		ldi r25,lo8(0)
 402 026c 0E94 0000 		call tolower
 403               	.LVL18:
 404 0270 F801      		movw r30,r16
 405 0272 8193      		st Z+,r24
 406 0274 8F01      		movw r16,r30
 407               	.LM41:
 408 0276 F394      		inc r15
 409               	.LVL19:
 410               	.L25:
 411 0278 FE14      		cp r15,r14
 412 027a 00F0      		brlo .L26
 413               	.LM42:
 414 027c CE01      		movw r24,r28
 415 027e 0E94 0000 		call tftpd_get_mode
 416               	.LVL20:
 417 0282 8093 0000 		sts tftpd+2,r24
 418               	.LM43:
 419 0286 8823      		tst r24
 420 0288 01F4      		brne .L27
 421               	.LM44:
 422 028a 84E0      		ldi r24,lo8(4)
 423 028c 60E0      		ldi r22,lo8(__c.1843)
 424 028e 70E0      		ldi r23,hi8(__c.1843)
 425 0290 0E94 0000 		call tftpd_send_error_P
 426               	.LVL21:
 427               	.L29:
 428 0294 80E0      		ldi r24,lo8(0)
 429 0296 00C0      		rjmp .L24
 430               	.LVL22:
 431               	.L27:
 432               	.LM45:
 433 0298 80E0      		ldi r24,lo8(0)
 434 029a 90E0      		ldi r25,hi8(0)
 435 029c 0E94 0000 		call tftpd_send_ack
 436               	.LVL23:
 437               	.L24:
 438               	/* epilogue start */
 439               	.LM46:
 440 02a0 DF91      		pop r29
 441               	.LVL24:
 442 02a2 CF91      		pop r28
 443               	.LVL25:
 444 02a4 1F91      		pop r17
 445 02a6 0F91      		pop r16
 446 02a8 FF90      		pop r15
 447               	.LVL26:
 448 02aa EF90      		pop r14
 449               	.LVL27:
 450 02ac 0895      		ret
 451               	.LFE6:
 453               	.global	tftpd_reset
 455               	tftpd_reset:
 456               	.LFB4:
 457               	.LM47:
 458               	/* prologue: function */
 459               	/* frame size = 0 */
 460               	.LM48:
 461 02ae 1092 0000 		sts tftpd+1,__zero_reg__
 462               	.LM49:
 463 02b2 1092 0000 		sts tftpd+2,__zero_reg__
 464               	.LM50:
 465 02b6 1092 0000 		sts (tftpd+3)+1,__zero_reg__
 466 02ba 1092 0000 		sts tftpd+3,__zero_reg__
 467               	.LM51:
 468 02be 8091 0000 		lds r24,tftpd
 469 02c2 0E94 0000 		call udp_unbind_remote
 470               	/* epilogue start */
 471               	.LM52:
 472 02c6 0895      		ret
 473               	.LFE4:
 475               	.global	tftpd_handle_error
 477               	tftpd_handle_error:
 478               	.LFB11:
 479               	.LM53:
 480               	.LVL28:
 481               	/* prologue: function */
 482               	/* frame size = 0 */
 483               	.LM54:
 484 02c8 8091 0000 		lds r24,tftpd+1
 485               	.LVL29:
 486 02cc 8130      		cpi r24,lo8(1)
 487 02ce 01F4      		brne .L33
 488               	.LM55:
 489 02d0 0E94 0000 		call tftpd_reset
 490               	.LVL30:
 491               	.L33:
 492               	.LM56:
 493 02d4 81E0      		ldi r24,lo8(1)
 494               	/* epilogue start */
 495 02d6 0895      		ret
 496               	.LFE11:
 498               	.global	tftpd_callback
 500               	tftpd_callback:
 501               	.LFB5:
 502               	.LM57:
 503               	.LVL31:
 504               	/* prologue: function */
 505               	/* frame size = 0 */
 506 02d8 FB01      		movw r30,r22
 507               	.LM58:
 508 02da 9091 0000 		lds r25,tftpd
 509 02de 8917      		cp r24,r25
 510 02e0 01F4      		brne .L41
 511               	.LVL32:
 512               	.LM59:
 513 02e2 DB01      		movw r26,r22
 514 02e4 1296      		adiw r26,2
 515               	.LVL33:
 516               	.LM60:
 517 02e6 BA01      		movw r22,r20
 518 02e8 6250      		subi r22,lo8(-(-2))
 519 02ea 7040      		sbci r23,hi8(-(-2))
 520               	.LVL34:
 521               	.LM61:
 522 02ec 8181      		ldd r24,Z+1
 523               	.LVL35:
 524 02ee 282F      		mov r18,r24
 525 02f0 30E0      		ldi r19,lo8(0)
 526 02f2 9081      		ld r25,Z
 527 02f4 80E0      		ldi r24,lo8(0)
 528 02f6 282B      		or r18,r24
 529 02f8 392B      		or r19,r25
 530 02fa 2330      		cpi r18,3
 531 02fc 3105      		cpc r19,__zero_reg__
 532 02fe 01F0      		breq .L39
 533               	.LVL36:
 534 0300 2530      		cpi r18,5
 535 0302 3105      		cpc r19,__zero_reg__
 536 0304 01F0      		breq .L40
 537 0306 2230      		cpi r18,2
 538 0308 3105      		cpc r19,__zero_reg__
 539 030a 01F4      		brne .L41
 540               	.LM62:
 541 030c CD01      		movw r24,r26
 542 030e 0E94 0000 		call tftpd_handle_wrq
 543               	.LVL37:
 544 0312 8823      		tst r24
 545 0314 01F0      		breq .L41
 546               	.LM63:
 547 0316 81E0      		ldi r24,lo8(1)
 548 0318 8093 0000 		sts tftpd+1,r24
 549 031c 0895      		ret
 550               	.LVL38:
 551               	.L40:
 552               	.LM64:
 553 031e CD01      		movw r24,r26
 554 0320 0E94 0000 		call tftpd_handle_error
 555               	.LVL39:
 556 0324 0895      		ret
 557               	.LVL40:
 558               	.L39:
 559               	.LM65:
 560 0326 CD01      		movw r24,r26
 561 0328 0E94 0000 		call tftpd_handle_data
 562               	.LVL41:
 563 032c 8823      		tst r24
 564 032e 01F4      		brne .L41
 565               	.LM66:
 566 0330 0E94 0000 		call tftpd_reset
 567               	.LVL42:
 568               	.L41:
 569 0334 0895      		ret
 570               	.LFE5:
 572               	.global	tftpd_init
 574               	tftpd_init:
 575               	.LFB3:
 576               	.LM67:
 577               	/* prologue: function */
 578               	/* frame size = 0 */
 579               	.LM68:
 580 0336 85E4      		ldi r24,lo8(69)
 581 0338 90E0      		ldi r25,hi8(69)
 582 033a 60E0      		ldi r22,lo8(gs(tftpd_callback))
 583 033c 70E0      		ldi r23,hi8(gs(tftpd_callback))
 584 033e 0E94 0000 		call udp_socket_alloc
 585 0342 8093 0000 		sts tftpd,r24
 586               	.LM69:
 587 0346 0E94 0000 		call tftpd_reset
 588               	.LM70:
 589 034a 81E0      		ldi r24,lo8(1)
 590               	/* epilogue start */
 591 034c 0895      		ret
 592               	.LFE3:
 594               		.section	.progmem.data,"a",@progbits
 597               	__c.1913:
 598 0000 0A00      		.string	"\n"
 601               	__c.1907:
 602 0002 2530 3278 		.string	"%02x"
 602      00
 605               	__c.1903:
 606 0007 2563 00   		.string	"%c"
 609               	__c.1876:
 610 000a 6D61 696C 		.string	"mail"
 610      00
 613               	__c.1874:
 614 000f 6F63 7465 		.string	"octet"
 614      7400 
 617               	__c.1872:
 618 0015 6E65 7461 		.string	"netascii"
 618      7363 6969 
 618      00
 621               	__c.1843:
 622 001e 696E 7661 		.string	"invalid mode"
 622      6C69 6420 
 622      6D6F 6465 
 622      00
 623               		.section	.exram,"aw",@progbits
 626               	tftpd:
 627 0000 0000 0000 		.skip 5,0
 627      00
 716               	.Letext0:
DEFINED SYMBOLS
                            *ABS*:0000000000000000 tftp.c
     /tmp/ccHcIIFE.s:2      *ABS*:000000000000003f __SREG__
     /tmp/ccHcIIFE.s:3      *ABS*:000000000000003e __SP_H__
     /tmp/ccHcIIFE.s:4      *ABS*:000000000000003d __SP_L__
     /tmp/ccHcIIFE.s:5      *ABS*:0000000000000034 __CCP__
     /tmp/ccHcIIFE.s:6      *ABS*:0000000000000000 __tmp_reg__
     /tmp/ccHcIIFE.s:7      *ABS*:0000000000000001 __zero_reg__
     /tmp/ccHcIIFE.s:18     .text:0000000000000000 tftpd_send_error_P
     /tmp/ccHcIIFE.s:626    .exram:0000000000000000 tftpd
     /tmp/ccHcIIFE.s:69     .text:0000000000000050 tftpd_send_ack
     /tmp/ccHcIIFE.s:105    .text:0000000000000086 tftpd_handle_data
     /tmp/ccHcIIFE.s:605    .progmem.data:0000000000000007 __c.1903
     /tmp/ccHcIIFE.s:601    .progmem.data:0000000000000002 __c.1907
     /tmp/ccHcIIFE.s:597    .progmem.data:0000000000000000 __c.1913
     /tmp/ccHcIIFE.s:298    .text:00000000000001e4 tftpd_get_mode
     /tmp/ccHcIIFE.s:617    .progmem.data:0000000000000015 __c.1872
     /tmp/ccHcIIFE.s:613    .progmem.data:000000000000000f __c.1874
     /tmp/ccHcIIFE.s:609    .progmem.data:000000000000000a __c.1876
     /tmp/ccHcIIFE.s:349    .text:0000000000000226 tftpd_handle_wrq
     /tmp/ccHcIIFE.s:621    .progmem.data:000000000000001e __c.1843
     /tmp/ccHcIIFE.s:455    .text:00000000000002ae tftpd_reset
     /tmp/ccHcIIFE.s:477    .text:00000000000002c8 tftpd_handle_error
     /tmp/ccHcIIFE.s:500    .text:00000000000002d8 tftpd_callback
     /tmp/ccHcIIFE.s:574    .text:0000000000000336 tftpd_init

UNDEFINED SYMBOLS
hton16
ethernet_tx_buffer
strcpy_P
strlen_P
udp_send
df
fprintf_P
strcmp_P
tolower
udp_unbind_remote
udp_socket_alloc
